target datalayout = "e-m:e-p270:32:32-p271:32:32-p272:64:64-i64:64-i128:128-f80:128-n8:16:32:64-S128"
target triple = "x86_64-pc-linux-gnu"

%struct.AV1RawOBUHeader = type { i8, i8, i8, i8, i8, i8, i8, i8 }
%struct.CodedBitstreamContext = type { ptr, ptr, ptr, ptr, i32, i32, i32, ptr, ptr, ptr, ptr, i64 }
%struct.CodedBitstreamAV1Context = type { ptr, ptr, ptr, i32, ptr, ptr, i64, i32, i32, i32, i32, i32, i32, i32, i32, i32, i32, i32, i32, i32, i32, i32, i32, [8 x i32], [8 x i32], [8 x %struct.AV1ReferenceFrameState], i32, i32, [8 x i8], [2 x i8], [8 x [8 x i8]], [8 x [8 x i16]] }
%struct.AV1ReferenceFrameState = type { i32, i32, i32, i32, i32, i32, i32, i32, i32, i32, i32, i32, [8 x i32], [8 x i8], [2 x i8], [8 x [8 x i8]], [8 x [8 x i16]] }

@.str.18 = private unnamed_addr constant [11 x i8] c"OBU header\00", align 1
@.str.19 = private unnamed_addr constant [18 x i8] c"obu_forbidden_bit\00", align 1
@.str.20 = private unnamed_addr constant [9 x i8] c"obu_type\00", align 1
@.str.21 = private unnamed_addr constant [19 x i8] c"obu_extension_flag\00", align 1
@.str.22 = private unnamed_addr constant [19 x i8] c"obu_has_size_field\00", align 1
@.str.23 = private unnamed_addr constant [18 x i8] c"obu_reserved_1bit\00", align 1
@.str.24 = private unnamed_addr constant [12 x i8] c"temporal_id\00", align 1
@.str.25 = private unnamed_addr constant [11 x i8] c"spatial_id\00", align 1
@.str.26 = private unnamed_addr constant [32 x i8] c"extension_header_reserved_3bits\00", align 1

; Function Attrs: nounwind uwtable
define internal i32 @cbs_av1_read_obu_header(ptr noundef %0, ptr noundef %1, ptr noundef %2) #0 {
  %4 = alloca i32, align 4
  %5 = alloca ptr, align 8
  %6 = alloca ptr, align 8
  %7 = alloca ptr, align 8
  %8 = alloca ptr, align 8
  %9 = alloca i32, align 4
  %10 = alloca i32, align 4
  %11 = alloca i32, align 4
  %12 = alloca i32, align 4
  %13 = alloca i32, align 4
  %14 = alloca i32, align 4
  %15 = alloca i32, align 4
  %16 = alloca i32, align 4
  %17 = alloca i32, align 4
  %18 = alloca i32, align 4
  store ptr %0, ptr %5, align 8, !tbaa !4
  store ptr %1, ptr %6, align 8, !tbaa !103
  store ptr %2, ptr %7, align 8, !tbaa !111
  call void @llvm.lifetime.start.p0(i64 8, ptr %8) #8
  %19 = load ptr, ptr %5, align 8, !tbaa !4
  %20 = getelementptr inbounds nuw %struct.CodedBitstreamContext, ptr %19, i32 0, i32 2
  %21 = load ptr, ptr %20, align 8, !tbaa !36
  store ptr %21, ptr %8, align 8, !tbaa !37
  call void @llvm.lifetime.start.p0(i64 4, ptr %9) #8
  br label %22

22:                                               ; preds = %3
  %23 = load ptr, ptr %5, align 8, !tbaa !4
  call void @ff_cbs_trace_header(ptr noundef %23, ptr noundef @.str.18)
  br label %24

24:                                               ; preds = %22
  br label %25

25:                                               ; preds = %24
  br label %26

26:                                               ; preds = %25
  call void @llvm.lifetime.start.p0(i64 4, ptr %10) #8
  br label %27

27:                                               ; preds = %26
  %28 = load ptr, ptr %5, align 8, !tbaa !4
  %29 = load ptr, ptr %6, align 8, !tbaa !103
  %30 = call i32 @ff_cbs_read_unsigned(ptr noundef %28, ptr noundef %29, i32 noundef 1, ptr noundef @.str.19, ptr noundef null, ptr noundef %10, i32 noundef 0, i32 noundef 0)
  store i32 %30, ptr %9, align 4, !tbaa !11
  %31 = load i32, ptr %9, align 4, !tbaa !11
  %32 = icmp slt i32 %31, 0
  br i1 %32, label %33, label %35

33:                                               ; preds = %27
  %34 = load i32, ptr %9, align 4, !tbaa !11
  store i32 %34, ptr %4, align 4
  store i32 1, ptr %11, align 4
  br label %42

35:                                               ; preds = %27
  br label %36

36:                                               ; preds = %35
  br label %37

37:                                               ; preds = %36
  %38 = load i32, ptr %10, align 4, !tbaa !11
  %39 = trunc i32 %38 to i8
  %40 = load ptr, ptr %7, align 8, !tbaa !111
  %41 = getelementptr inbounds nuw %struct.AV1RawOBUHeader, ptr %40, i32 0, i32 0
  store i8 %39, ptr %41, align 1, !tbaa !113
  store i32 0, ptr %11, align 4
  br label %42

42:                                               ; preds = %37, %33
  call void @llvm.lifetime.end.p0(i64 4, ptr %10) #8
  %43 = load i32, ptr %11, align 4
  switch i32 %43, label %223 [
    i32 0, label %44
  ]

44:                                               ; preds = %42
  br label %45

45:                                               ; preds = %44
  br label %46

46:                                               ; preds = %45
  br label %47

47:                                               ; preds = %46
  call void @llvm.lifetime.start.p0(i64 4, ptr %12) #8
  br label %48

48:                                               ; preds = %47
  %49 = load ptr, ptr %5, align 8, !tbaa !4
  %50 = load ptr, ptr %6, align 8, !tbaa !103
  %51 = call i32 @ff_cbs_read_unsigned(ptr noundef %49, ptr noundef %50, i32 noundef 4, ptr noundef @.str.20, ptr noundef null, ptr noundef %12, i32 noundef 0, i32 noundef 15)
  store i32 %51, ptr %9, align 4, !tbaa !11
  %52 = load i32, ptr %9, align 4, !tbaa !11
  %53 = icmp slt i32 %52, 0
  br i1 %53, label %54, label %56

54:                                               ; preds = %48
  %55 = load i32, ptr %9, align 4, !tbaa !11
  store i32 %55, ptr %4, align 4
  store i32 1, ptr %11, align 4
  br label %63

56:                                               ; preds = %48
  br label %57

57:                                               ; preds = %56
  br label %58

58:                                               ; preds = %57
  %59 = load i32, ptr %12, align 4, !tbaa !11
  %60 = trunc i32 %59 to i8
  %61 = load ptr, ptr %7, align 8, !tbaa !111
  %62 = getelementptr inbounds nuw %struct.AV1RawOBUHeader, ptr %61, i32 0, i32 1
  store i8 %60, ptr %62, align 1, !tbaa !31
  store i32 0, ptr %11, align 4
  br label %63

63:                                               ; preds = %58, %54
  call void @llvm.lifetime.end.p0(i64 4, ptr %12) #8
  %64 = load i32, ptr %11, align 4
  switch i32 %64, label %223 [
    i32 0, label %65
  ]

65:                                               ; preds = %63
  br label %66

66:                                               ; preds = %65
  br label %67

67:                                               ; preds = %66
  br label %68

68:                                               ; preds = %67
  call void @llvm.lifetime.start.p0(i64 4, ptr %13) #8
  br label %69

69:                                               ; preds = %68
  %70 = load ptr, ptr %5, align 8, !tbaa !4
  %71 = load ptr, ptr %6, align 8, !tbaa !103
  %72 = call i32 @ff_cbs_read_simple_unsigned(ptr noundef %70, ptr noundef %71, i32 noundef 1, ptr noundef @.str.21, ptr noundef %13)
  store i32 %72, ptr %9, align 4, !tbaa !11
  %73 = load i32, ptr %9, align 4, !tbaa !11
  %74 = icmp slt i32 %73, 0
  br i1 %74, label %75, label %77

75:                                               ; preds = %69
  %76 = load i32, ptr %9, align 4, !tbaa !11
  store i32 %76, ptr %4, align 4
  store i32 1, ptr %11, align 4
  br label %84

77:                                               ; preds = %69
  br label %78

78:                                               ; preds = %77
  br label %79

79:                                               ; preds = %78
  %80 = load i32, ptr %13, align 4, !tbaa !11
  %81 = trunc i32 %80 to i8
  %82 = load ptr, ptr %7, align 8, !tbaa !111
  %83 = getelementptr inbounds nuw %struct.AV1RawOBUHeader, ptr %82, i32 0, i32 2
  store i8 %81, ptr %83, align 1, !tbaa !30
  store i32 0, ptr %11, align 4
  br label %84

84:                                               ; preds = %79, %75
  call void @llvm.lifetime.end.p0(i64 4, ptr %13) #8
  %85 = load i32, ptr %11, align 4
  switch i32 %85, label %223 [
    i32 0, label %86
  ]

86:                                               ; preds = %84
  br label %87

87:                                               ; preds = %86
  br label %88

88:                                               ; preds = %87
  br label %89

89:                                               ; preds = %88
  call void @llvm.lifetime.start.p0(i64 4, ptr %14) #8
  br label %90

90:                                               ; preds = %89
  %91 = load ptr, ptr %5, align 8, !tbaa !4
  %92 = load ptr, ptr %6, align 8, !tbaa !103
  %93 = call i32 @ff_cbs_read_simple_unsigned(ptr noundef %91, ptr noundef %92, i32 noundef 1, ptr noundef @.str.22, ptr noundef %14)
  store i32 %93, ptr %9, align 4, !tbaa !11
  %94 = load i32, ptr %9, align 4, !tbaa !11
  %95 = icmp slt i32 %94, 0
  br i1 %95, label %96, label %98

96:                                               ; preds = %90
  %97 = load i32, ptr %9, align 4, !tbaa !11
  store i32 %97, ptr %4, align 4
  store i32 1, ptr %11, align 4
  br label %105

98:                                               ; preds = %90
  br label %99

99:                                               ; preds = %98
  br label %100

100:                                              ; preds = %99
  %101 = load i32, ptr %14, align 4, !tbaa !11
  %102 = trunc i32 %101 to i8
  %103 = load ptr, ptr %7, align 8, !tbaa !111
  %104 = getelementptr inbounds nuw %struct.AV1RawOBUHeader, ptr %103, i32 0, i32 3
  store i8 %102, ptr %104, align 1, !tbaa !28
  store i32 0, ptr %11, align 4
  br label %105

105:                                              ; preds = %100, %96
  call void @llvm.lifetime.end.p0(i64 4, ptr %14) #8
  %106 = load i32, ptr %11, align 4
  switch i32 %106, label %223 [
    i32 0, label %107
  ]

107:                                              ; preds = %105
  br label %108

108:                                              ; preds = %107
  br label %109

109:                                              ; preds = %108
  br label %110

110:                                              ; preds = %109
  call void @llvm.lifetime.start.p0(i64 4, ptr %15) #8
  br label %111

111:                                              ; preds = %110
  %112 = load ptr, ptr %5, align 8, !tbaa !4
  %113 = load ptr, ptr %6, align 8, !tbaa !103
  %114 = call i32 @ff_cbs_read_unsigned(ptr noundef %112, ptr noundef %113, i32 noundef 1, ptr noundef @.str.23, ptr noundef null, ptr noundef %15, i32 noundef 0, i32 noundef 0)
  store i32 %114, ptr %9, align 4, !tbaa !11
  %115 = load i32, ptr %9, align 4, !tbaa !11
  %116 = icmp slt i32 %115, 0
  br i1 %116, label %117, label %119

117:                                              ; preds = %111
  %118 = load i32, ptr %9, align 4, !tbaa !11
  store i32 %118, ptr %4, align 4
  store i32 1, ptr %11, align 4
  br label %126

119:                                              ; preds = %111
  br label %120

120:                                              ; preds = %119
  br label %121

121:                                              ; preds = %120
  %122 = load i32, ptr %15, align 4, !tbaa !11
  %123 = trunc i32 %122 to i8
  %124 = load ptr, ptr %7, align 8, !tbaa !111
  %125 = getelementptr inbounds nuw %struct.AV1RawOBUHeader, ptr %124, i32 0, i32 4
  store i8 %123, ptr %125, align 1, !tbaa !114
  store i32 0, ptr %11, align 4
  br label %126

126:                                              ; preds = %121, %117
  call void @llvm.lifetime.end.p0(i64 4, ptr %15) #8
  %127 = load i32, ptr %11, align 4
  switch i32 %127, label %223 [
    i32 0, label %128
  ]

128:                                              ; preds = %126
  br label %129

129:                                              ; preds = %128
  br label %130

130:                                              ; preds = %129
  %131 = load ptr, ptr %7, align 8, !tbaa !111
  %132 = getelementptr inbounds nuw %struct.AV1RawOBUHeader, ptr %131, i32 0, i32 2
  %133 = load i8, ptr %132, align 1, !tbaa !30
  %134 = icmp ne i8 %133, 0
  br i1 %134, label %135, label %199

135:                                              ; preds = %130
  br label %136

136:                                              ; preds = %135
  call void @llvm.lifetime.start.p0(i64 4, ptr %16) #8
  br label %137

137:                                              ; preds = %136
  %138 = load ptr, ptr %5, align 8, !tbaa !4
  %139 = load ptr, ptr %6, align 8, !tbaa !103
  %140 = call i32 @ff_cbs_read_simple_unsigned(ptr noundef %138, ptr noundef %139, i32 noundef 3, ptr noundef @.str.24, ptr noundef %16)
  store i32 %140, ptr %9, align 4, !tbaa !11
  %141 = load i32, ptr %9, align 4, !tbaa !11
  %142 = icmp slt i32 %141, 0
  br i1 %142, label %143, label %145

143:                                              ; preds = %137
  %144 = load i32, ptr %9, align 4, !tbaa !11
  store i32 %144, ptr %4, align 4
  store i32 1, ptr %11, align 4
  br label %152

145:                                              ; preds = %137
  br label %146

146:                                              ; preds = %145
  br label %147

147:                                              ; preds = %146
  %148 = load i32, ptr %16, align 4, !tbaa !11
  %149 = trunc i32 %148 to i8
  %150 = load ptr, ptr %7, align 8, !tbaa !111
  %151 = getelementptr inbounds nuw %struct.AV1RawOBUHeader, ptr %150, i32 0, i32 5
  store i8 %149, ptr %151, align 1, !tbaa !115
  store i32 0, ptr %11, align 4
  br label %152

152:                                              ; preds = %147, %143
  call void @llvm.lifetime.end.p0(i64 4, ptr %16) #8
  %153 = load i32, ptr %11, align 4
  switch i32 %153, label %223 [
    i32 0, label %154
  ]

154:                                              ; preds = %152
  br label %155

155:                                              ; preds = %154
  br label %156

156:                                              ; preds = %155
  br label %157

157:                                              ; preds = %156
  call void @llvm.lifetime.start.p0(i64 4, ptr %17) #8
  br label %158

158:                                              ; preds = %157
  %159 = load ptr, ptr %5, align 8, !tbaa !4
  %160 = load ptr, ptr %6, align 8, !tbaa !103
  %161 = call i32 @ff_cbs_read_simple_unsigned(ptr noundef %159, ptr noundef %160, i32 noundef 2, ptr noundef @.str.25, ptr noundef %17)
  store i32 %161, ptr %9, align 4, !tbaa !11
  %162 = load i32, ptr %9, align 4, !tbaa !11
  %163 = icmp slt i32 %162, 0
  br i1 %163, label %164, label %166

164:                                              ; preds = %158
  %165 = load i32, ptr %9, align 4, !tbaa !11
  store i32 %165, ptr %4, align 4
  store i32 1, ptr %11, align 4
  br label %173

166:                                              ; preds = %158
  br label %167

167:                                              ; preds = %166
  br label %168

168:                                              ; preds = %167
  %169 = load i32, ptr %17, align 4, !tbaa !11
  %170 = trunc i32 %169 to i8
  %171 = load ptr, ptr %7, align 8, !tbaa !111
  %172 = getelementptr inbounds nuw %struct.AV1RawOBUHeader, ptr %171, i32 0, i32 6
  store i8 %170, ptr %172, align 1, !tbaa !116
  store i32 0, ptr %11, align 4
  br label %173

173:                                              ; preds = %168, %164
  call void @llvm.lifetime.end.p0(i64 4, ptr %17) #8
  %174 = load i32, ptr %11, align 4
  switch i32 %174, label %223 [
    i32 0, label %175
  ]

175:                                              ; preds = %173
  br label %176

176:                                              ; preds = %175
  br label %177

177:                                              ; preds = %176
  br label %178

178:                                              ; preds = %177
  call void @llvm.lifetime.start.p0(i64 4, ptr %18) #8
  br label %179

179:                                              ; preds = %178
  %180 = load ptr, ptr %5, align 8, !tbaa !4
  %181 = load ptr, ptr %6, align 8, !tbaa !103
  %182 = call i32 @ff_cbs_read_unsigned(ptr noundef %180, ptr noundef %181, i32 noundef 3, ptr noundef @.str.26, ptr noundef null, ptr noundef %18, i32 noundef 0, i32 noundef 0)
  store i32 %182, ptr %9, align 4, !tbaa !11
  %183 = load i32, ptr %9, align 4, !tbaa !11
  %184 = icmp slt i32 %183, 0
  br i1 %184, label %185, label %187

185:                                              ; preds = %179
  %186 = load i32, ptr %9, align 4, !tbaa !11
  store i32 %186, ptr %4, align 4
  store i32 1, ptr %11, align 4
  br label %194

187:                                              ; preds = %179
  br label %188

188:                                              ; preds = %187
  br label %189

189:                                              ; preds = %188
  %190 = load i32, ptr %18, align 4, !tbaa !11
  %191 = trunc i32 %190 to i8
  %192 = load ptr, ptr %7, align 8, !tbaa !111
  %193 = getelementptr inbounds nuw %struct.AV1RawOBUHeader, ptr %192, i32 0, i32 7
  store i8 %191, ptr %193, align 1, !tbaa !117
  store i32 0, ptr %11, align 4
  br label %194

194:                                              ; preds = %189, %185
  call void @llvm.lifetime.end.p0(i64 4, ptr %18) #8
  %195 = load i32, ptr %11, align 4
  switch i32 %195, label %223 [
    i32 0, label %196
  ]

196:                                              ; preds = %194
  br label %197

197:                                              ; preds = %196
  br label %198

198:                                              ; preds = %197
  br label %210

199:                                              ; preds = %130
  br label %200

200:                                              ; preds = %199
  %201 = load ptr, ptr %7, align 8, !tbaa !111
  %202 = getelementptr inbounds nuw %struct.AV1RawOBUHeader, ptr %201, i32 0, i32 5
  store i8 0, ptr %202, align 1, !tbaa !115
  br label %203

203:                                              ; preds = %200
  br label %204

204:                                              ; preds = %203
  br label %205

205:                                              ; preds = %204
  %206 = load ptr, ptr %7, align 8, !tbaa !111
  %207 = getelementptr inbounds nuw %struct.AV1RawOBUHeader, ptr %206, i32 0, i32 6
  store i8 0, ptr %207, align 1, !tbaa !116
  br label %208

208:                                              ; preds = %205
  br label %209

209:                                              ; preds = %208
  br label %210

210:                                              ; preds = %209, %198
  %211 = load ptr, ptr %7, align 8, !tbaa !111
  %212 = getelementptr inbounds nuw %struct.AV1RawOBUHeader, ptr %211, i32 0, i32 5
  %213 = load i8, ptr %212, align 1, !tbaa !115
  %214 = zext i8 %213 to i32
  %215 = load ptr, ptr %8, align 8, !tbaa !37
  %216 = getelementptr inbounds nuw %struct.CodedBitstreamAV1Context, ptr %215, i32 0, i32 7
  store i32 %214, ptr %216, align 8, !tbaa !55
  %217 = load ptr, ptr %7, align 8, !tbaa !111
  %218 = getelementptr inbounds nuw %struct.AV1RawOBUHeader, ptr %217, i32 0, i32 6
  %219 = load i8, ptr %218, align 1, !tbaa !116
  %220 = zext i8 %219 to i32
  %221 = load ptr, ptr %8, align 8, !tbaa !37
  %222 = getelementptr inbounds nuw %struct.CodedBitstreamAV1Context, ptr %221, i32 0, i32 8
  store i32 %220, ptr %222, align 4, !tbaa !56
  store i32 0, ptr %4, align 4
  store i32 1, ptr %11, align 4
  br label %223

223:                                              ; preds = %210, %194, %173, %152, %126, %105, %84, %63, %42
  call void @llvm.lifetime.end.p0(i64 4, ptr %9) #8
  call void @llvm.lifetime.end.p0(i64 8, ptr %8) #8
  %224 = load i32, ptr %4, align 4
  ret i32 %224
}