; Function Attrs: nounwind uwtable
define internal fastcc range(i32 -2147483648, 1) i32 @cbs_av1_read_obu_header(ptr noundef %0, ptr noundef nonnull %1, ptr noundef captures(none) %2) unnamed_addr #0 {
  %4 = alloca i32, align 4
  %5 = alloca i32, align 4
  %6 = alloca i32, align 4
  %7 = alloca i32, align 4
  %8 = alloca i32, align 4
  %9 = alloca i32, align 4
  %10 = alloca i32, align 4
  %11 = alloca i32, align 4
  %12 = getelementptr inbounds nuw i8, ptr %0, i64 16
  %13 = load ptr, ptr %12, align 8, !tbaa !33
  tail call void @ff_cbs_trace_header(ptr noundef %0, ptr noundef nonnull @.str.18) #8
  call void @llvm.lifetime.start.p0(i64 4, ptr nonnull %4) #8
  %14 = call i32 @ff_cbs_read_unsigned(ptr noundef %0, ptr noundef nonnull %1, i32 noundef 1, ptr noundef nonnull @.str.19, ptr noundef null, ptr noundef nonnull %4, i32 noundef 0, i32 noundef 0) #8
  %15 = icmp sgt i32 %14, -1
  br i1 %15, label %16, label %.critedge

16:                                               ; preds = %3
  %17 = load i32, ptr %4, align 4, !tbaa !69
  %18 = trunc i32 %17 to i8
  store i8 %18, ptr %2, align 1, !tbaa !72
  call void @llvm.lifetime.end.p0(i64 4, ptr nonnull %4) #8
  call void @llvm.lifetime.start.p0(i64 4, ptr nonnull %5) #8
  %19 = call i32 @ff_cbs_read_unsigned(ptr noundef nonnull %0, ptr noundef nonnull %1, i32 noundef 4, ptr noundef nonnull @.str.20, ptr noundef null, ptr noundef nonnull %5, i32 noundef 0, i32 noundef 15) #8
  %20 = icmp sgt i32 %19, -1
  br i1 %20, label %22, label %21

21:                                               ; preds = %16
  call void @llvm.lifetime.end.p0(i64 4, ptr nonnull %5) #8
  br label %79

22:                                               ; preds = %16
  %23 = load i32, ptr %5, align 4, !tbaa !69
  %24 = trunc i32 %23 to i8
  %25 = getelementptr inbounds nuw i8, ptr %2, i64 1
  store i8 %24, ptr %25, align 1, !tbaa !31
  call void @llvm.lifetime.end.p0(i64 4, ptr nonnull %5) #8
  call void @llvm.lifetime.start.p0(i64 4, ptr nonnull %6) #8
  %26 = call i32 @ff_cbs_read_simple_unsigned(ptr noundef nonnull %0, ptr noundef nonnull %1, i32 noundef 1, ptr noundef nonnull @.str.21, ptr noundef nonnull %6) #8
  %27 = icmp sgt i32 %26, -1
  br i1 %27, label %29, label %28

28:                                               ; preds = %22
  call void @llvm.lifetime.end.p0(i64 4, ptr nonnull %6) #8
  br label %79

29:                                               ; preds = %22
  %30 = load i32, ptr %6, align 4, !tbaa !69
  %31 = trunc i32 %30 to i8
  %32 = getelementptr inbounds nuw i8, ptr %2, i64 2
  store i8 %31, ptr %32, align 1, !tbaa !29
  call void @llvm.lifetime.end.p0(i64 4, ptr nonnull %6) #8
  call void @llvm.lifetime.start.p0(i64 4, ptr nonnull %7) #8
  %33 = call i32 @ff_cbs_read_simple_unsigned(ptr noundef nonnull %0, ptr noundef nonnull %1, i32 noundef 1, ptr noundef nonnull @.str.22, ptr noundef nonnull %7) #8
  %34 = icmp sgt i32 %33, -1
  br i1 %34, label %36, label %35

35:                                               ; preds = %29
  call void @llvm.lifetime.end.p0(i64 4, ptr nonnull %7) #8
  br label %79

36:                                               ; preds = %29
  %37 = load i32, ptr %7, align 4, !tbaa !69
  %38 = trunc i32 %37 to i8
  %39 = getelementptr inbounds nuw i8, ptr %2, i64 3
  store i8 %38, ptr %39, align 1, !tbaa !27
  call void @llvm.lifetime.end.p0(i64 4, ptr nonnull %7) #8
  call void @llvm.lifetime.start.p0(i64 4, ptr nonnull %8) #8
  %40 = call i32 @ff_cbs_read_unsigned(ptr noundef nonnull %0, ptr noundef nonnull %1, i32 noundef 1, ptr noundef nonnull @.str.23, ptr noundef null, ptr noundef nonnull %8, i32 noundef 0, i32 noundef 0) #8
  %41 = icmp sgt i32 %40, -1
  br i1 %41, label %43, label %42

42:                                               ; preds = %36
  call void @llvm.lifetime.end.p0(i64 4, ptr nonnull %8) #8
  br label %79

43:                                               ; preds = %36
  %44 = load i32, ptr %8, align 4, !tbaa !69
  %45 = trunc i32 %44 to i8
  %46 = getelementptr inbounds nuw i8, ptr %2, i64 4
  store i8 %45, ptr %46, align 1, !tbaa !73
  call void @llvm.lifetime.end.p0(i64 4, ptr nonnull %8) #8
  %47 = load i8, ptr %32, align 1, !tbaa !29
  %.not = icmp eq i8 %47, 0
  br i1 %.not, label %71, label %48

48:                                               ; preds = %43
  call void @llvm.lifetime.start.p0(i64 4, ptr nonnull %9) #8
  %49 = call i32 @ff_cbs_read_simple_unsigned(ptr noundef nonnull %0, ptr noundef nonnull %1, i32 noundef 3, ptr noundef nonnull @.str.24, ptr noundef nonnull %9) #8
  %50 = icmp sgt i32 %49, -1
  br i1 %50, label %52, label %51

51:                                               ; preds = %48
  call void @llvm.lifetime.end.p0(i64 4, ptr nonnull %9) #8
  br label %79

52:                                               ; preds = %48
  %53 = load i32, ptr %9, align 4, !tbaa !69
  %54 = trunc i32 %53 to i8
  %55 = getelementptr inbounds nuw i8, ptr %2, i64 5
  store i8 %54, ptr %55, align 1, !tbaa !74
  call void @llvm.lifetime.end.p0(i64 4, ptr nonnull %9) #8
  call void @llvm.lifetime.start.p0(i64 4, ptr nonnull %10) #8
  %56 = call i32 @ff_cbs_read_simple_unsigned(ptr noundef nonnull %0, ptr noundef nonnull %1, i32 noundef 2, ptr noundef nonnull @.str.25, ptr noundef nonnull %10) #8
  %57 = icmp sgt i32 %56, -1
  br i1 %57, label %59, label %58

58:                                               ; preds = %52
  call void @llvm.lifetime.end.p0(i64 4, ptr nonnull %10) #8
  br label %79

59:                                               ; preds = %52
  %60 = load i32, ptr %10, align 4, !tbaa !69
  %61 = trunc i32 %60 to i8
  %62 = getelementptr inbounds nuw i8, ptr %2, i64 6
  store i8 %61, ptr %62, align 1, !tbaa !75
  call void @llvm.lifetime.end.p0(i64 4, ptr nonnull %10) #8
  call void @llvm.lifetime.start.p0(i64 4, ptr nonnull %11) #8
  %63 = call i32 @ff_cbs_read_unsigned(ptr noundef nonnull %0, ptr noundef nonnull %1, i32 noundef 3, ptr noundef nonnull @.str.26, ptr noundef null, ptr noundef nonnull %11, i32 noundef 0, i32 noundef 0) #8
  %64 = icmp sgt i32 %63, -1
  br i1 %64, label %.thread96, label %70

.thread96:                                        ; preds = %59
  %65 = load i32, ptr %11, align 4, !tbaa !69
  %66 = trunc i32 %65 to i8
  %67 = getelementptr inbounds nuw i8, ptr %2, i64 7
  store i8 %66, ptr %67, align 1, !tbaa !76
  call void @llvm.lifetime.end.p0(i64 4, ptr nonnull %11) #8
  %.pre = load i8, ptr %55, align 1, !tbaa !74
  %.pre99 = load i8, ptr %62, align 1, !tbaa !75
  %68 = zext i8 %.pre to i32
  %69 = zext i8 %.pre99 to i32
  br label %74

70:                                               ; preds = %59
  call void @llvm.lifetime.end.p0(i64 4, ptr nonnull %11) #8
  br label %79

71:                                               ; preds = %43
  %72 = getelementptr inbounds nuw i8, ptr %2, i64 5
  store i8 0, ptr %72, align 1, !tbaa !74
  %73 = getelementptr inbounds nuw i8, ptr %2, i64 6
  store i8 0, ptr %73, align 1, !tbaa !75
  br label %74

74:                                               ; preds = %.thread96, %71
  %75 = phi i32 [ %69, %.thread96 ], [ 0, %71 ]
  %76 = phi i32 [ %68, %.thread96 ], [ 0, %71 ]
  %77 = getelementptr inbounds nuw i8, ptr %13, i64 56
  store i32 %76, ptr %77, align 8, !tbaa !49
  %78 = getelementptr inbounds nuw i8, ptr %13, i64 60
  store i32 %75, ptr %78, align 4, !tbaa !50
  br label %79

.critedge:                                        ; preds = %3
  call void @llvm.lifetime.end.p0(i64 4, ptr nonnull %4) #8
  br label %79

79:                                               ; preds = %70, %58, %51, %42, %35, %28, %21, %.critedge, %74
  %.165 = phi i32 [ 0, %74 ], [ %63, %70 ], [ %56, %58 ], [ %49, %51 ], [ %40, %42 ], [ %33, %35 ], [ %26, %28 ], [ %19, %21 ], [ %14, %.critedge ]
  ret i32 %.165
}